; Function Attrs: mustprogress nofree norecurse nosync nounwind willreturn memory(read, inaccessiblemem: none) uwtable
define hidden noundef zeroext i1 @_ZNK15expr2polynomial6is_varEP4expr(ptr nocapture noundef nonnull readonly align 8 dereferenceable(16) %this, ptr nocapture noundef readonly %t) local_unnamed_addr #7 align 2 {
entry:
  %m_imp = getelementptr inbounds i8, ptr %this, i64 8
  %0 = load ptr, ptr %m_imp, align 8
  %m_expr2var = getelementptr inbounds i8, ptr %0, i64 40
  %1 = load ptr, ptr %m_expr2var, align 8
  %m_id2map.i = getelementptr inbounds i8, ptr %1, i64 8
  %2 = load ptr, ptr %m_id2map.i, align 8
  %cmp.i.i.i = icmp eq ptr %2, null
  br i1 %cmp.i.i.i, label %_ZNK8expr2var6is_varEP4expr.exit, label %_ZNK6vectorIjLb0EjE3getEjRKj.exit.i

_ZNK6vectorIjLb0EjE3getEjRKj.exit.i:              ; preds = %entry
  %3 = load i32, ptr %t, align 4
  %arrayidx.i.i.i = getelementptr inbounds i8, ptr %2, i64 -4
  %4 = load i32, ptr %arrayidx.i.i.i, align 4
  %cmp.not.i.i = icmp ugt i32 %4, %3
  br i1 %cmp.not.i.i, label %_ZNK6vectorIjLb0EjE3getEjRKj.exit.then.i, label %_ZNK8expr2var6is_varEP4expr.exit

_ZNK6vectorIjLb0EjE3getEjRKj.exit.then.i:         ; preds = %_ZNK6vectorIjLb0EjE3getEjRKj.exit.i
  %idxprom.i.i = zext i32 %3 to i64
  %arrayidx.i.i = getelementptr inbounds i32, ptr %2, i64 %idxprom.i.i
  %.then.val.i = load i32, ptr %arrayidx.i.i, align 4
  %5 = icmp ne i32 %.then.val.i, -1
  br label %_ZNK8expr2var6is_varEP4expr.exit

_ZNK8expr2var6is_varEP4expr.exit:                 ; preds = %entry, %_ZNK6vectorIjLb0EjE3getEjRKj.exit.i, %_ZNK6vectorIjLb0EjE3getEjRKj.exit.then.i
  %cmp.i = phi i1 [ %5, %_ZNK6vectorIjLb0EjE3getEjRKj.exit.then.i ], [ false, %_ZNK6vectorIjLb0EjE3getEjRKj.exit.i ], [ false, %entry ]
  ret i1 %cmp.i
}